target datalayout = "e-m:e-p270:32:32-p271:32:32-p272:64:64-i64:64-i128:128-f80:128-n8:16:32:64-S128"
target triple = "x86_64-pc-linux-gnu"

@MyLatch = external global ptr, align 8
@InterruptPending = external global i32, align 4

; Function Attrs: nounwind uwtable
define dso_local void @ProcWaitForSignal(i32 noundef %0) #0 {
  %2 = alloca i32, align 4
  store i32 %0, ptr %2, align 4
  %3 = load ptr, ptr @MyLatch, align 8
  %4 = load i32, ptr %2, align 4
  %5 = call i32 @WaitLatch(ptr noundef %3, i32 noundef 33, i64 noundef 0, i32 noundef %4)
  %6 = load ptr, ptr @MyLatch, align 8
  call void @ResetLatch(ptr noundef %6)
  br label %7

7:                                                ; preds = %1
  %8 = load volatile i32, ptr @InterruptPending, align 4
  %9 = icmp ne i32 %8, 0
  %10 = zext i1 %9 to i32
  %11 = sext i32 %10 to i64
  %12 = call i64 @llvm.expect.i64(i64 %11, i64 0)
  %13 = icmp ne i64 %12, 0
  br i1 %13, label %14, label %15

14:                                               ; preds = %7
  call void @ProcessInterrupts()
  br label %15

15:                                               ; preds = %14, %7
  br label %16

16:                                               ; preds = %15
  ret void
}