; Function Attrs: nounwind uwtable
define dso_local void @ProcWaitForSignal(i32 noundef %0) local_unnamed_addr #0 {
  %2 = load ptr, ptr @MyLatch, align 8
  %3 = tail call i32 @WaitLatch(ptr noundef %2, i32 noundef 33, i64 noundef 0, i32 noundef %0) #14
  %4 = load ptr, ptr @MyLatch, align 8
  tail call void @ResetLatch(ptr noundef %4) #14
  %5 = load volatile i32, ptr @InterruptPending, align 4
  %.not = icmp eq i32 %5, 0
  br i1 %.not, label %7, label %6, !prof !26

6:                                                ; preds = %1
  tail call void @ProcessInterrupts() #14
  br label %7

7:                                                ; preds = %1, %6
  ret void
}